; Function Attrs: null_pointer_is_valid sspstrong uwtable
define internal noundef zeroext i1 @logcat_text_tag_dump_open(ptr noundef writeonly captures(none) initializes((40, 48), (64, 72)) %0, ptr readnone captures(none) %1, ptr readnone captures(none) %2) #0 {
  %4 = tail call noalias dereferenceable_or_null(4) ptr @g_malloc(i64 noundef 4) #10
  store i32 166, ptr %4, align 4
  %5 = getelementptr inbounds nuw i8, ptr %0, i64 40
  store ptr %4, ptr %5, align 8
  %6 = getelementptr inbounds nuw i8, ptr %0, i64 64
  store ptr @logcat_text_dump_text, ptr %6, align 8
  ret i1 true
}